target datalayout = "e-m:e-p270:32:32-p271:32:32-p272:64:64-i64:64-i128:128-f80:128-n8:16:32:64-S128"
target triple = "x86_64-pc-linux-gnu"

; Function Attrs: inlinehint nounwind uwtable
define internal ptr @Aig_Not(ptr noundef %0) #2 {
  %2 = alloca ptr, align 8
  store ptr %0, ptr %2, align 8, !tbaa !25
  %3 = load ptr, ptr %2, align 8, !tbaa !25
  %4 = ptrtoint ptr %3 to i64
  %5 = xor i64 %4, 1
  %6 = inttoptr i64 %5 to ptr
  ret ptr %6
}

; Function Attrs: nounwind uwtable
define ptr @Aig_Or(ptr noundef %0, ptr noundef %1, ptr noundef %2) #0 {
  %4 = alloca ptr, align 8
  %5 = alloca ptr, align 8
  %6 = alloca ptr, align 8
  store ptr %0, ptr %4, align 8, !tbaa !3
  store ptr %1, ptr %5, align 8, !tbaa !25
  store ptr %2, ptr %6, align 8, !tbaa !25
  %7 = load ptr, ptr %4, align 8, !tbaa !3
  %8 = load ptr, ptr %5, align 8, !tbaa !25
  %9 = call ptr @Aig_Not(ptr noundef %8)
  %10 = load ptr, ptr %6, align 8, !tbaa !25
  %11 = call ptr @Aig_Not(ptr noundef %10)
  %12 = call ptr @Aig_And(ptr noundef %7, ptr noundef %9, ptr noundef %11)
  %13 = call ptr @Aig_Not(ptr noundef %12)
  ret ptr %13
}

; Function Attrs: nounwind uwtable
define ptr @Aig_Maj(ptr noundef %0, ptr noundef %1, ptr noundef %2, ptr noundef %3) #0 {
  %5 = alloca ptr, align 8
  %6 = alloca ptr, align 8
  %7 = alloca ptr, align 8
  %8 = alloca ptr, align 8
  store ptr %0, ptr %5, align 8, !tbaa !3
  store ptr %1, ptr %6, align 8, !tbaa !25
  store ptr %2, ptr %7, align 8, !tbaa !25
  store ptr %3, ptr %8, align 8, !tbaa !25
  %9 = load ptr, ptr %5, align 8, !tbaa !3
  %10 = load ptr, ptr %5, align 8, !tbaa !3
  %11 = load ptr, ptr %5, align 8, !tbaa !3
  %12 = load ptr, ptr %6, align 8, !tbaa !25
  %13 = load ptr, ptr %7, align 8, !tbaa !25
  %14 = call ptr @Aig_And(ptr noundef %11, ptr noundef %12, ptr noundef %13)
  %15 = load ptr, ptr %5, align 8, !tbaa !3
  %16 = load ptr, ptr %6, align 8, !tbaa !25
  %17 = load ptr, ptr %8, align 8, !tbaa !25
  %18 = call ptr @Aig_And(ptr noundef %15, ptr noundef %16, ptr noundef %17)
  %19 = call ptr @Aig_Or(ptr noundef %10, ptr noundef %14, ptr noundef %18)
  %20 = load ptr, ptr %5, align 8, !tbaa !3
  %21 = load ptr, ptr %7, align 8, !tbaa !25
  %22 = load ptr, ptr %8, align 8, !tbaa !25
  %23 = call ptr @Aig_And(ptr noundef %20, ptr noundef %21, ptr noundef %22)
  %24 = call ptr @Aig_Or(ptr noundef %9, ptr noundef %19, ptr noundef %23)
  ret ptr %24
}