; Function Attrs: nounwind uwtable
define ptr @Aig_Maj(ptr noundef %0, ptr noundef %1, ptr noundef %2, ptr noundef %3) local_unnamed_addr #0 {
  %5 = tail call ptr @Aig_And(ptr noundef %0, ptr noundef %1, ptr noundef %2)
  %6 = tail call ptr @Aig_And(ptr noundef %0, ptr noundef %1, ptr noundef %3)
  %7 = ptrtoint ptr %5 to i64
  %8 = xor i64 %7, 1
  %9 = inttoptr i64 %8 to ptr
  %10 = ptrtoint ptr %6 to i64
  %11 = xor i64 %10, 1
  %12 = inttoptr i64 %11 to ptr
  %13 = tail call ptr @Aig_And(ptr noundef %0, ptr noundef %9, ptr noundef %12)
  %14 = tail call ptr @Aig_And(ptr noundef %0, ptr noundef %2, ptr noundef %3)
  %15 = ptrtoint ptr %14 to i64
  %16 = xor i64 %15, 1
  %17 = inttoptr i64 %16 to ptr
  %18 = tail call ptr @Aig_And(ptr noundef %0, ptr noundef %13, ptr noundef %17)
  %19 = ptrtoint ptr %18 to i64
  %20 = xor i64 %19, 1
  %21 = inttoptr i64 %20 to ptr
  ret ptr %21
}